(dp0
I1
(dp1
S'think'
p2
F0.03066812705366922
sS'help'
p3
F0.0065717415115005475
sS'office'
p4
F0.002190580503833516
sS'give'
p5
F0.028477546549835708
sS'@card@'
p6
F0.04381161007667032
sS'site'
p7
F0.01095290251916758
sS'month'
p8
F0.002190580503833516
sS"n't"
p9
F0.03614457831325301
sS'want'
p10
F0.017524644030668127
sS'need'
p11
F0.023001095290251915
sS'home'
p12
F0.007667031763417305
sS'happen'
p13
F0.007667031763417305
sS'find'
p14
F0.029572836801752465
sS'information'
p15
F0.00547645125958379
sS'write'
p16
F0.009857612267250822
sS'business'
p17
F0.002190580503833516
sS'provide'
p18
F0.0032858707557502738
sS'pay'
p19
F0.024096385542168676
sS'support'
p20
F0.012048192771084338
sS'question'
p21
F0.05585980284775466
sS'send'
p22
F0.0065717415115005475
sS'member'
p23
F0.002190580503833516
sS'feel'
p24
F0.014238773274917854
sS'live'
p25
F0.018619934282584884
sS'book'
p26
F0.012048192771084338
sS'call'
p27
F0.007667031763417305
sS'answer'
p28
F0.017524644030668127
sS'health'
p29
F0.001095290251916758
sS'local'
p30
F0.009857612267250822
sS'public'
p31
F0.012048192771084338
sS'woman'
p32
F0.00547645125958379
sS'press'
p33
F0.001095290251916758
sS'form'
p34
F0.012048192771084338
sS'food'
p35
F0.002190580503833516
sS'put'
p36
F0.01642935377875137
sS'company'
p37
F0.00547645125958379
sS'part'
p38
F0.012048192771084338
sS'question_#1'
p39
F0.01642935377875137
sS'minister'
p40
F0.001095290251916758
sS'child'
p41
F0.012048192771084338
sS'ask'
p42
F0.3253012048192771
sS'post'
p43
F0.004381161007667032
sS'hold'
p44
F0.004381161007667032
sS'school'
p45
F0.01533406352683461
sS'look'
p46
F0.009857612267250822
sS'try'
p47
F0.008762322015334063
sS'manual'
p48
F0.001095290251916758
sS'tell'
p49
F0.0208105147864184
sS'leave'
p50
F0.007667031763417305
sS'thing'
p51
F0.01533406352683461
sS'contact'
p52
F0.0032858707557502738
sS'place'
p53
F0.014238773274917854
sS'report'
p54
F0.001095290251916758
sS'order'
p55
F0.007667031763417305
sS'talk'
p56
F0.01533406352683461
ssI2
(dp57
g3
F0.018404907975460124
sS'campaign'
p58
F0.024539877300613498
sg6
F0.04294478527607362
sg8
F0.049079754601226995
sg11
F0.018404907975460124
sS'group'
p59
F0.03067484662576687
sS'service'
p60
F0.03680981595092025
sg18
F0.04294478527607362
sg27
F0.018404907975460124
sS'test'
p61
F0.024539877300613498
sg30
F0.012269938650306749
sg31
F0.06748466257668712
sg17
F0.03680981595092025
sg35
F0.05521472392638037
sg37
F0.06748466257668712
sg42
F0.05521472392638037
sS'nov'
p62
F0.0736196319018405
sg44
F0.006134969325153374
sS'mobile'
p63
F0.11042944785276074
sS'country'
p64
F0.06134969325153374
sS'disease'
p65
F0.08588957055214724
sg49
F0.006134969325153374
sg52
F0.049079754601226995
sg53
F0.006134969325153374
ssI3
(dp66
g3
F0.01834862385321101
sg4
F0.022935779816513763
sg5
F0.009174311926605505
sg6
F0.12844036697247707
sg33
F0.009174311926605505
sS'publish'
p67
F0.013761467889908258
sg12
F0.013761467889908258
sg13
F0.0045871559633027525
sg14
F0.0045871559633027525
sg15
F0.07339449541284404
sg59
F0.01834862385321101
sg60
F0.06422018348623854
sg18
F0.045871559633027525
sg22
F0.01834862385321101
sS'cent'
p68
F0.0045871559633027525
sg23
F0.05963302752293578
sg27
F0.04128440366972477
sg28
F0.009174311926605505
sg29
F0.05963302752293578
sg30
F0.01834862385321101
sg49
F0.0045871559633027525
sg35
F0.0045871559633027525
sg38
F0.0045871559633027525
sg40
F0.013761467889908258
sS'letter'
p69
F0.06880733944954129
sg42
F0.13302752293577982
sg44
F0.027522935779816515
sg46
F0.01834862385321101
sg64
F0.0045871559633027525
sg2
F0.009174311926605505
sg50
F0.0045871559633027525
sg16
F0.01834862385321101
sg54
F0.045871559633027525
sg55
F0.0045871559633027525
ssI4
(dp70
g3
F0.016129032258064516
sg6
F0.016129032258064516
sg7
F0.016129032258064516
sg8
F0.016129032258064516
sg10
F0.03225806451612903
sg11
F0.016129032258064516
sg13
F0.08064516129032258
sg47
F0.06451612903225806
sg59
F0.04838709677419355
sg20
F0.016129032258064516
sg27
F0.016129032258064516
sg61
F0.16129032258064516
sg32
F0.12903225806451613
sg38
F0.016129032258064516
sg40
F0.016129032258064516
sg42
F0.016129032258064516
sg43
F0.14516129032258066
sg46
F0.016129032258064516
sg50
F0.03225806451612903
sg9
F0.03225806451612903
sg51
F0.04838709677419355
sg55
F0.04838709677419355
ssI5
(dp71
g45
F0.041666666666666664
sg18
F0.020833333333333332
sg59
F0.041666666666666664
sg17
F0.0625
sg58
F0.125
sg51
F0.020833333333333332
sg35
F0.020833333333333332
sg67
F0.020833333333333332
sg50
F0.020833333333333332
sg33
F0.1875
sg10
F0.08333333333333333
sg40
F0.125
sg69
F0.041666666666666664
sg42
F0.041666666666666664
sg12
F0.020833333333333332
sg30
F0.0625
sg3
F0.0625
ssI6
(dp72
g15
F0.041666666666666664
sg45
F0.041666666666666664
sg10
F0.08333333333333333
sg58
F0.041666666666666664
sg20
F0.041666666666666664
sg22
F0.08333333333333333
sg16
F0.041666666666666664
sg69
F0.041666666666666664
sg42
F0.08333333333333333
sS'hijab'
p73
F0.4583333333333333
sg14
F0.041666666666666664
ssI7
(dp74
g15
F0.024691358024691357
sg59
F0.012345679012345678
sg4
F0.04938271604938271
sg19
F0.012345679012345678
sg37
F0.012345679012345678
sg48
F0.43209876543209874
sg67
F0.20987654320987653
sg16
F0.012345679012345678
sg52
F0.012345679012345678
sg11
F0.012345679012345678
sS'shortly'
p75
F0.20987654320987653
ssI8
(dp76
g44
F0.08333333333333333
sg14
F0.08333333333333333
sg68
F0.8333333333333334
ss.