(dp0
I1
(dp1
S'What'
p2
F0.0024813895781637717
sS'From'
p3
F0.009925558312655087
sS'For'
p4
F0.0024813895781637717
sS'played'
p5
F0.24069478908188585
sS'When'
p6
F0.0024813895781637717
sS'seen'
p7
F0.0024813895781637717
sS'How'
p8
F0.0024813895781637717
sS'maintained'
p9
F0.004962779156327543
sS'reached'
p10
F0.0024813895781637717
sS'need'
p11
F0.0024813895781637717
sS'proved'
p12
F0.2704714640198511
sS'find'
p13
F0.0024813895781637717
sS'grown'
p14
F0.009925558312655087
sS'established'
p15
F0.01240694789081886
sS'shown'
p16
F0.0024813895781637717
sS'remains'
p17
F0.0024813895781637717
sS'create'
p18
F0.0024813895781637717
sS'remained'
p19
F0.03225806451612903
sS'adopted'
p20
F0.0024813895781637717
sS'noticed'
p21
F0.0024813895781637717
sS'attracted'
p22
F0.022332506203473945
sS'add'
p23
F0.0024813895781637717
sS'won'
p24
F0.004962779156327543
sS'call'
p25
F0.0024813895781637717
sS'show'
p26
F0.004962779156327543
sS'gave'
p27
F0.0024813895781637717
sS'meant'
p28
F0.0024813895781637717
sS'play'
p29
F0.004962779156327543
sS'formed'
p30
F0.04218362282878412
sS'attend'
p31
F0.0024813895781637717
sS'provided'
p32
F0.019851116625310174
sS'felt'
p33
F0.0024813895781637717
sS'undergone'
p34
F0.004962779156327543
sS'completely'
p35
F0.004962779156327543
sS'Making'
p36
F0.004962779156327543
sS'worked'
p37
F0.0024813895781637717
sS'building'
p38
F0.004962779156327543
sS'created'
p39
F0.01240694789081886
sS'playing'
p40
F0.0024813895781637717
sS'looked'
p41
F0.004962779156327543
sS'<uni>'
p42
F0.20843672456575682
sS'Through'
p43
F0.0024813895781637717
sS'found'
p44
F0.009925558312655087
sS'introduced'
p45
F0.0024813895781637717
sS'requires'
p46
F0.0024813895781637717
sS'called'
p47
F0.004962779156327543
ssI2
(dp48
S'Even'
p49
F0.004405286343612335
sg2
F0.004405286343612335
sS'Very'
p50
F0.004405286343612335
sS'Three'
p51
F0.00881057268722467
sg8
F0.2775330396475771
sS'Much'
p52
F0.030837004405286344
sS'Any'
p53
F0.004405286343612335
sS'Get'
p54
F0.004405286343612335
sS'Read'
p55
F0.013215859030837005
sS'After'
p56
F0.00881057268722467
sS'However'
p57
F0.013215859030837005
sS'But'
p58
F0.02643171806167401
sS'Possibly'
p59
F0.07048458149779736
sS'Despite'
p60
F0.004405286343612335
sS'Not'
p61
F0.03524229074889868
sS'With'
p62
F0.004405286343612335
sS'This'
p63
F0.00881057268722467
sS'Many'
p64
F0.013215859030837005
sS'Two'
p65
F0.01762114537444934
sS'Yet'
p66
F0.013215859030837005
sS'Where'
p67
F0.004405286343612335
sS'Having'
p68
F0.00881057268722467
sS'Once'
p69
F0.00881057268722467
sS'And'
p70
F0.2687224669603524
sS'Also'
p71
F0.00881057268722467
sS'Being'
p72
F0.07929515418502203
sS'That'
p73
F0.004405286343612335
sS'Some'
p74
F0.00881057268722467
sS'One'
p75
F0.00881057268722467
sg42
F0.01762114537444934
sS'Other'
p76
F0.004405286343612335
sS'Its'
p77
F0.00881057268722467
ssI3
(dp78
S'represent'
p79
F0.010159651669085631
sS'consider'
p80
F0.01741654571843251
sg26
F0.001451378809869376
sS'move'
p81
F0.001451378809869376
sS'obtain'
p82
F0.011611030478955007
sS'bring'
p83
F0.010159651669085631
sS'identify'
p84
F0.005805515239477504
sS'follow'
p85
F0.05079825834542816
sS'suffer'
p86
F0.001451378809869376
sg13
F0.01741654571843251
sS'help'
p87
F0.00725689404934688
sS'hold'
p88
F0.010159651669085631
sS'send'
p89
F0.002902757619738752
sg23
F0.002902757619738752
sS'include'
p90
F0.00725689404934688
sS'achieve'
p91
F0.005805515239477504
sS'hit'
p92
F0.001451378809869376
sS'read'
p93
F0.001451378809869376
sS'introduce'
p94
F0.00725689404934688
sS'discuss'
p95
F0.04644412191582003
sS'celebrate'
p96
F0.001451378809869376
sS'arrange'
p97
F0.001451378809869376
sS'seek'
p98
F0.001451378809869376
sS'remove'
p99
F0.018867924528301886
sS'lose'
p100
F0.002902757619738752
sg44
F0.0043541364296081275
sS'challenge'
p101
F0.001451378809869376
sS'enjoy'
p102
F0.001451378809869376
sS'prevent'
p103
F0.001451378809869376
sS'set'
p104
F0.001451378809869376
sS'lead'
p105
F0.00725689404934688
sS'avoid'
p106
F0.0043541364296081275
sS'encourage'
p107
F0.001451378809869376
sS'run'
p108
F0.001451378809869376
sS'ascertain'
p109
F0.002902757619738752
sS'deliver'
p110
F0.005805515239477504
sS'host'
p111
F0.011611030478955007
sS'ask'
p112
F0.00725689404934688
sS'generate'
p113
F0.001451378809869376
sS'change'
p114
F0.005805515239477504
sS'receive'
p115
F0.026124818577648767
sS'ensure'
p116
F0.005805515239477504
sS'implement'
p117
F0.023222060957910014
sS'support'
p118
F0.03918722786647315
sS'manage'
p119
F0.0043541364296081275
sS'replace'
p120
F0.00725689404934688
sS'put'
p121
F0.011611030478955007
sS'determine'
p122
F0.01451378809869376
sS'carry'
p123
F0.001451378809869376
sS'apply'
p124
F0.001451378809869376
sS'establish'
p125
F0.03918722786647315
sS'select'
p126
F0.002902757619738752
sS'takes'
p127
F0.001451378809869376
sS'prove'
p128
F0.001451378809869376
sg18
F0.01451378809869376
sS'mark'
p129
F0.0043541364296081275
sS'start'
p130
F0.02177068214804064
sS'treat'
p131
F0.001451378809869376
sS'tell'
p132
F0.001451378809869376
sS'define'
p133
F0.010159651669085631
sS'enable'
p134
F0.00725689404934688
sS'form'
p135
F0.0420899854862119
sS'offer'
p136
F0.001451378809869376
sS'serve'
p137
F0.001451378809869376
sS'promote'
p138
F0.03773584905660377
sS'present'
p139
F0.0043541364296081275
sS'join'
p140
F0.06821480406386067
sS'require'
p141
F0.001451378809869376
sS'recruit'
p142
F0.001451378809869376
sS"'re"
p143
F0.001451378809869376
sS'match'
p144
F0.013062409288824383
sS'meet'
p145
F0.01451378809869376
sS'<unk>'
p146
F0.011611030478955007
sS'give'
p147
F0.08853410740203194
sS'accept'
p148
F0.04934687953555878
sS'want'
p149
F0.00725689404934688
sg11
F0.001451378809869376
sS'saw'
p150
F0.001451378809869376
sS'develop'
p151
F0.01451378809869376
sS'built'
p152
F0.002902757619738752
sS'provide'
p153
F0.001451378809869376
sS'pay'
p154
F0.001451378809869376
sS'build'
p155
F0.011611030478955007
sg29
F0.002902757619738752
sS'reach'
p156
F0.01741654571843251
sS'reflect'
p157
F0.010159651669085631
sS'produce'
p158
F0.0043541364296081275
sS'recognise'
p159
F0.011611030478955007
sS'adopt'
p160
F0.015965166908563134
sS'drive'
p161
F0.001451378809869376
sS'allow'
p162
F0.002902757619738752
sS'enter'
p163
F0.00725689404934688
ssI4
(dp164
g102
F0.00267379679144385
sg103
F0.00267379679144385
sS'changed'
p165
F0.00267379679144385
sg104
F0.0053475935828877
sg80
F0.0053475935828877
sg147
F0.00267379679144385
sS'feel'
p166
F0.00267379679144385
sS'visit'
p167
F0.09893048128342247
sg82
F0.0053475935828877
sS'joined'
p168
F0.00267379679144385
sS'accommodate'
p169
F0.0053475935828877
sg121
F0.008021390374331552
sg134
F0.00267379679144385
sg99
F0.00267379679144385
sg11
F0.00267379679144385
sg85
F0.00267379679144385
sg125
F0.00267379679144385
sg13
F0.0106951871657754
sS'register'
p170
F0.0053475935828877
sS'leave'
p171
F0.026737967914438502
sS'write'
p172
F0.0106951871657754
sS'cut'
p173
F0.0053475935828877
sg79
F0.00267379679144385
sg135
F0.00267379679144385
sg153
F0.0053475935828877
sS'open'
p174
F0.01871657754010695
sg106
F0.00267379679144385
sg108
F0.045454545454545456
sg89
F0.016042780748663103
sg129
F0.0213903743315508
sS'access'
p175
F0.0427807486631016
sg130
F0.02406417112299465
sg23
F0.00267379679144385
sg24
F0.00267379679144385
sg25
F0.0053475935828877
sg96
F0.02406417112299465
sS'win'
p176
F0.00267379679144385
sg90
F0.0106951871657754
sg132
F0.013368983957219251
sg154
F0.026737967914438502
sS'buy'
p177
F0.0213903743315508
sg92
F0.00267379679144385
sS'complete'
p178
F0.016042780748663103
sg31
F0.1497326203208556
sS'purchase'
p179
F0.0427807486631016
sg137
F0.0106951871657754
sg100
F0.0053475935828877
sg110
F0.0106951871657754
sS'explore'
p180
F0.008021390374331552
sg158
F0.00267379679144385
sg145
F0.016042780748663103
sg112
F0.026737967914438502
sg88
F0.013368983957219251
sS'secure'
p181
F0.00267379679144385
sg114
F0.00267379679144385
sS'suggest'
p182
F0.00267379679144385
sS'appoint'
p183
F0.00267379679144385
sS'easily'
p184
F0.013368983957219251
sg140
F0.016042780748663103
sg127
F0.00267379679144385
sS'getting'
p185
F0.00267379679144385
sg115
F0.00267379679144385
sg98
F0.00267379679144385
sg160
F0.00267379679144385
sg161
F0.03208556149732621
sS'experience'
p186
F0.00267379679144385
sS'employ'
p187
F0.008021390374331552
sS'contact'
p188
F0.06951871657754011
sg163
F0.0053475935828877
sS'promoted'
p189
F0.00267379679144385
sg44
F0.0053475935828877
sS'operate'
p190
F0.00267379679144385
sg18
F0.00267379679144385
sS'left'
p191
F0.00267379679144385
ssI5
(dp192
g49
F0.007110536522301228
sg2
F0.003232062055591467
sg3
F0.001292824822236587
sg4
F0.025856496444731737
sS'Perhaps'
p193
F0.0019392372333548805
sg6
F0.015513897866839044
sg51
F0.003232062055591467
sS'produced'
p194
F0.0006464124111182935
sg71
F0.001292824822236587
sS'Only'
p195
F0.005817711700064641
sg52
F0.002585649644473174
sS'Under'
p196
F0.0006464124111182935
sg75
F0.012928248222365869
sS'Without'
p197
F0.002585649644473174
sS'His'
p198
F0.012281835811247576
sS'Creating'
p199
F0.0006464124111182935
sg54
F0.003232062055591467
sg55
F0.006464124111182934
sg56
F0.0006464124111182935
sg57
F0.0019392372333548805
sg58
F0.007110536522301228
sS'Most'
p200
F0.005817711700064641
sS'Although'
p201
F0.012281835811247576
sg60
F0.003878474466709761
sg61
F0.004524886877828055
sS'During'
p202
F0.0006464124111182935
sS'Their'
p203
F0.007756948933419522
sS'launching'
p204
F0.0006464124111182935
sg153
F0.0006464124111182935
sS'Another'
p205
F0.007756948933419522
sg136
F0.0006464124111182935
sS'These'
p206
F0.007110536522301228
sg64
F0.006464124111182934
sS'Sometimes'
p207
F0.0019392372333548805
sg63
F0.07821590174531351
sg65
F0.003878474466709761
sS'Though'
p208
F0.003232062055591467
sS'Such'
p209
F0.007110536522301228
sg36
F0.0006464124111182935
sS'The'
p210
F0.5565610859728507
sS'Feeling'
p211
F0.008403361344537815
sg68
F0.0006464124111182935
sS'It<uni>s'
p212
F0.003232062055591467
sS'All'
p213
F0.023270846800258566
sS'Particularly'
p214
F0.014221073044602456
sg8
F0.003232062055591467
sg72
F0.007110536522301228
sg62
F0.00904977375565611
sg73
F0.006464124111182934
sg74
F0.017453135100193924
sg77
F0.007110536522301228
sg50
F0.007110536522301228
sS'See'
p215
F0.0006464124111182935
sg76
F0.008403361344537815
sg43
F0.0006464124111182935
sS'Have'
p216
F0.0006464124111182935
sS'They'
p217
F0.002585649644473174
sS'Our'
p218
F0.015513897866839044
sS'Metier'
p219
F0.010342598577892695
sg53
F0.013574660633484163
sg146
F0.013574660633484163
ssI6
(dp220
g5
F0.012698412698412698
sg166
F0.0031746031746031746
sS'caused'
p221
F0.03492063492063492
sS'involve'
p222
F0.0031746031746031746
sS'heard'
p223
F0.0031746031746031746
sg11
F0.0031746031746031746
sg45
F0.006349206349206349
sg150
F0.050793650793650794
sg13
F0.006349206349206349
sS'creating'
p224
F0.009523809523809525
sS'certainly'
p225
F0.0031746031746031746
sg127
F0.05396825396825397
sg17
F0.1873015873015873
sS'began'
p226
F0.006349206349206349
sS'holds'
p227
F0.031746031746031744
sg20
F0.0031746031746031746
sg93
F0.006349206349206349
sS'finally'
p228
F0.006349206349206349
sS'goes'
p229
F0.031746031746031744
sS'mean'
p230
F0.0031746031746031746
sS'grows'
p231
F0.006349206349206349
sg27
F0.025396825396825397
sS'started'
p232
F0.0031746031746031746
sg29
F0.0031746031746031746
sg177
F0.0031746031746031746
sg178
F0.009523809523809525
sS'means'
p233
F0.0031746031746031746
sS'beat'
p234
F0.031746031746031744
sS'offered'
p235
F0.006349206349206349
sg110
F0.006349206349206349
sg46
F0.009523809523809525
sS'took'
p236
F0.022222222222222223
sS'feels'
p237
F0.02857142857142857
sS'fell'
p238
F0.0031746031746031746
sS'included'
p239
F0.015873015873015872
sS'totally'
p240
F0.006349206349206349
sS'appears'
p241
F0.0380952380952381
sg139
F0.0031746031746031746
sS'suggested'
p242
F0.0031746031746031746
sg194
F0.0031746031746031746
sS'grew'
p243
F0.0031746031746031746
sS'look'
p244
F0.006349206349206349
sg185
F0.0031746031746031746
sS'fully'
p245
F0.006349206349206349
sg165
F0.0031746031746031746
sg121
F0.1492063492063492
sg35
F0.006349206349206349
sg41
F0.006349206349206349
sg42
F0.006349206349206349
sS'remain'
p246
F0.0031746031746031746
sS'represents'
p247
F0.05714285714285714
sg117
F0.0031746031746031746
sS'happened'
p248
F0.009523809523809525
sS'makes'
p249
F0.025396825396825397
sg118
F0.0031746031746031746
sg191
F0.009523809523809525
ssI7
(dp250
g103
F0.0049261083743842365
sS'achieved'
p251
F0.0049261083743842365
sg148
F0.0049261083743842365
sg223
F0.009852216748768473
sg149
F0.1625615763546798
sg11
F0.0049261083743842365
sS'attract'
p252
F0.009852216748768473
sS'depend'
p253
F0.059113300492610835
sS'appear'
p254
F0.0049261083743842365
sg150
F0.0049261083743842365
sg26
F0.009852216748768473
sS'increase'
p255
F0.0049261083743842365
sS'tight'
p256
F0.3251231527093596
sg23
F0.0049261083743842365
sg90
F0.014778325123152709
sg28
F0.0049261083743842365
sg110
F0.009852216748768473
sg44
F0.009852216748768473
sg127
F0.0049261083743842365
sg98
F0.009852216748768473
sg244
F0.019704433497536946
sS'considered'
p257
F0.014778325123152709
sg79
F0.0049261083743842365
sg141
F0.0049261083743842365
sg99
F0.0049261083743842365
sg171
F0.029556650246305417
sS'making'
p258
F0.009852216748768473
sg146
F0.014778325123152709
sS'slightly'
p259
F0.009852216748768473
sg230
F0.21674876847290642
ssI8
(dp260
g79
F0.004484304932735426
sg5
F0.004484304932735426
sS'increasingly'
p261
F0.06726457399103139
sg119
F0.004484304932735426
sS'discovered'
p262
F0.008968609865470852
sS'clearly'
p263
F0.03587443946188341
sS'readily'
p264
F0.004484304932735426
sg16
F0.004484304932735426
sS'generally'
p265
F0.09417040358744394
sS'actually'
p266
F0.04484304932735426
sg232
F0.004484304932735426
sg91
F0.004484304932735426
sS'experienced'
p267
F0.008968609865470852
sg259
F0.07174887892376682
sS'initially'
p268
F0.004484304932735426
sS'forming'
p269
F0.004484304932735426
sg30
F0.004484304932735426
sS'seemingly'
p270
F0.04932735426008968
sS'commercially'
p271
F0.004484304932735426
sS'released'
p272
F0.004484304932735426
sg35
F0.06278026905829596
sg240
F0.14349775784753363
sg185
F0.013452914798206279
sg257
F0.16591928251121077
sg245
F0.04035874439461883
sS'times'
p273
F0.004484304932735426
sS"n't"
p274
F0.013452914798206279
sS'stand'
p275
F0.004484304932735426
sg163
F0.004484304932735426
sg44
F0.026905829596412557
sg117
F0.004484304932735426
sS'providing'
p276
F0.013452914798206279
sg46
F0.017937219730941704
sg40
F0.04932735426008968
ssI9
(dp277
S'works'
p278
F0.038461538461538464
sg229
F0.01098901098901099
sS'lost'
p279
F0.01098901098901099
sg185
F0.01098901098901099
sg17
F0.005494505494505495
sg245
F0.005494505494505495
sS'taking'
p280
F0.016483516483516484
sg236
F0.4175824175824176
sg266
F0.01098901098901099
sS'brought'
p281
F0.005494505494505495
sg246
F0.005494505494505495
sS'going'
p282
F0.005494505494505495
sS'directly'
p283
F0.11538461538461539
sS'Following'
p284
F0.005494505494505495
sg37
F0.038461538461538464
sg45
F0.2802197802197802
sg248
F0.016483516483516484
ssI10
(dp285
g102
F0.0044444444444444444
sg281
F0.0044444444444444444
sg279
F0.6577777777777778
sS'received'
p286
F0.008888888888888889
sg234
F0.0044444444444444444
sS'completed'
p287
F0.2088888888888889
sg165
F0.008888888888888889
sg7
F0.0044444444444444444
sg232
F0.008888888888888889
sg169
F0.0044444444444444444
sg223
F0.008888888888888889
sg24
F0.0044444444444444444
sg93
F0.013333333333333334
sg194
F0.013333333333333334
sg100
F0.0044444444444444444
sg44
F0.0044444444444444444
sg37
F0.008888888888888889
sg45
F0.0044444444444444444
sS'</s>'
p288
F0.0044444444444444444
sS'launched'
p289
F0.017777777777777778
ssI11
(dp290
g49
F0.007462686567164179
sg47
F0.0006218905472636816
sS'Given'
p291
F0.0006218905472636816
sS'Within'
p292
F0.004353233830845771
sg3
F0.024253731343283583
sS'Using'
p293
F0.010572139303482588
sg4
F0.07960199004975124
sg193
F0.013059701492537313
sS'Make'
p294
F0.004975124378109453
sS'Since'
p295
F0.011194029850746268
sg6
F0.05223880597014925
sS'Use'
p296
F0.01181592039800995
sS'Note'
p297
F0.0012437810945273632
sg71
F0.012437810945273632
sg195
F0.009328358208955223
sg52
F0.0012437810945273632
sS'Take'
p298
F0.007462686567164179
sg196
F0.006840796019900498
sg160
F0.0006218905472636816
sS'owning'
p299
F0.0006218905472636816
sS'Then'
p300
F0.018034825870646767
sg198
F0.0018656716417910447
sg199
F0.0024875621890547263
sg54
F0.003109452736318408
sS'Becoming'
p301
F0.004975124378109453
sg56
F0.043532338308457715
sg57
F0.021766169154228857
sg58
F0.0740049751243781
sg59
F0.0006218905472636816
sS'Part'
p302
F0.0012437810945273632
sg201
F0.03731343283582089
sg60
F0.01181592039800995
sg61
F0.021144278606965175
sg202
F0.01616915422885572
sS'Now'
p303
F0.01554726368159204
sg62
F0.08893034825870647
sg212
F0.013681592039800995
sS'Like'
p304
F0.009328358208955223
sg64
F0.003109452736318408
sg207
F0.006840796019900498
sg2
F0.0236318407960199
sg208
F0.004353233830845771
sg209
F0.036069651741293535
sg284
F0.011194029850746268
sg36
F0.0024875621890547263
sg210
F0.0006218905472636816
sg67
F0.030472636815920398
sg68
F0.004975124378109453
sg69
F0.013059701492537313
sg70
F0.0472636815920398
sg184
F0.0006218905472636816
sg213
F0.01181592039800995
sS'Because'
p305
F0.006840796019900498
sS'Just'
p306
F0.008706467661691543
sg8
F0.0024875621890547263
sg72
F0.024253731343283583
sg73
F0.004975124378109453
sS'Thus'
p307
F0.013681592039800995
sS'While'
p308
F0.03296019900497513
sg66
F0.006218905472636816
sS'Whilst'
p309
F0.009950248756218905
sg215
F0.003109452736318408
sg197
F0.004353233830845771
sg43
F0.005597014925373134
sg216
F0.00808457711442786
sg218
F0.0006218905472636816
sg77
F0.009328358208955223
sg146
F0.01616915422885572
ssI12
(dp310
S'seeing'
p311
F0.01652892561983471
sg104
F0.0027548209366391185
sg87
F0.0027548209366391185
sg147
F0.0027548209366391185
sg123
F0.0027548209366391185
sg7
F0.0027548209366391185
sg288
F0.046831955922865015
sg37
F0.0027548209366391185
sg274
F0.0027548209366391185
sg225
F0.046831955922865015
sg198
F0.09090909090909091
sg5
F0.0027548209366391185
sg266
F0.0027548209366391185
sS'looking'
p312
F0.06336088154269973
sg282
F0.0027548209366391185
sg268
F0.005509641873278237
sS'proving'
p313
F0.049586776859504134
sg237
F0.005509641873278237
sS'moving'
p314
F0.05234159779614325
sg210
F0.0027548209366391185
sg88
F0.005509641873278237
sg240
F0.0027548209366391185
sg113
F0.0027548209366391185
sS'buying'
p315
F0.005509641873278237
sg185
F0.5179063360881543
sS'gotten'
p316
F0.008264462809917356
sg280
F0.01928374655647383
sg35
F0.0027548209366391185
sg41
F0.011019283746556474
sg258
F0.005509641873278237
sg259
F0.0027548209366391185
sg47
F0.0027548209366391185
sg191
F0.005509641873278237
ssI13
(dp317
S'fulfil'
p318
F0.002849002849002849
sg79
F0.005698005698005698
sg147
F0.005698005698005698
sg166
F0.005698005698005698
sS'proves'
p319
F0.002849002849002849
sg222
F0.002849002849002849
sg52
F0.002849002849002849
sg108
F0.002849002849002849
sg252
F0.005698005698005698
sg13
F0.005698005698005698
sg126
F0.005698005698005698
sg264
F0.002849002849002849
sS'needs'
p320
F0.008547008547008548
sg105
F0.002849002849002849
sg128
F0.039886039886039885
sS'perform'
p321
F0.002849002849002849
sg174
F0.005698005698005698
sg106
F0.002849002849002849
sS'selected'
p322
F0.002849002849002849
sg107
F0.1282051282051282
sS'offers'
p323
F0.05698005698005698
sg90
F0.002849002849002849
sg134
F0.005698005698005698
sg92
F0.002849002849002849
sg136
F0.002849002849002849
sg235
F0.008547008547008548
sg33
F0.002849002849002849
sg110
F0.005698005698005698
sS'stay'
p324
F0.014245014245014245
sg35
F0.005698005698005698
sg158
F0.017094017094017096
sg88
F0.002849002849002849
sS'grow'
p325
F0.005698005698005698
sg114
F0.005698005698005698
sg244
F0.14814814814814814
sg115
F0.005698005698005698
sg259
F0.002849002849002849
sg111
F0.002849002849002849
sg153
F0.002849002849002849
sg246
F0.41595441595441596
sS'continue'
p326
F0.005698005698005698
sg216
F0.002849002849002849
sg276
F0.002849002849002849
sg249
F0.002849002849002849
sg40
F0.002849002849002849
sg17
F0.019943019943019943
ssI14
(dp327
g242
F0.00684931506849315
sg15
F0.00684931506849315
sg16
F0.0410958904109589
sS'missed'
p328
F0.00684931506849315
sg39
F0.0136986301369863
sS'chosen'
p329
F0.6164383561643836
sS'developed'
p330
F0.00684931506849315
sg235
F0.00684931506849315
sg322
F0.136986301369863
sg236
F0.00684931506849315
sg21
F0.06164383561643835
sg223
F0.0136986301369863
sg257
F0.02054794520547945
sg194
F0.0136986301369863
sg316
F0.00684931506849315
sg230
F0.0136986301369863
sg44
F0.00684931506849315
sg191
F0.00684931506849315
sg146
F0.00684931506849315
ssI15
(dp331
g3
F0.002551020408163265
sg87
F0.004251700680272109
sg26
F0.003401360544217687
sg193
F0.0008503401360544217
sS'marked'
p332
F0.0008503401360544217
sg120
F0.003401360544217687
sg281
F0.0008503401360544217
sg76
F0.0008503401360544217
sS'including'
p333
F0.0017006802721088435
sg283
F0.003401360544217687
sS'allowed'
p334
F0.0008503401360544217
sg11
F0.0008503401360544217
sg85
F0.0008503401360544217
sg86
F0.0008503401360544217
sg288
F0.0008503401360544217
sg14
F0.0008503401360544217
sg32
F0.0008503401360544217
sg24
F0.0008503401360544217
sg105
F0.0017006802721088435
sS'severely'
p335
F0.002551020408163265
sS'giving'
p336
F0.0008503401360544217
sg167
F0.0008503401360544217
sS'young'
p337
F0.0008503401360544217
sg20
F0.0017006802721088435
sg255
F0.002551020408163265
sg323
F0.0017006802721088435
sS'discovers'
p338
F0.0008503401360544217
sg204
F0.0008503401360544217
sg248
F0.0008503401360544217
sg134
F0.0017006802721088435
sg136
F0.0017006802721088435
sg234
F0.0008503401360544217
sg269
F0.0008503401360544217
sg313
F0.0008503401360544217
sg46
F0.0017006802721088435
sg157
F0.0008503401360544217
sg35
F0.0008503401360544217
sg238
F0.0017006802721088435
sg314
F0.0008503401360544217
sS'lay'
p339
F0.0008503401360544217
sg145
F0.002551020408163265
sg284
F0.0017006802721088435
sg210
F0.002551020408163265
sg138
F0.0008503401360544217
sg241
F0.0017006802721088435
sg315
F0.002551020408163265
sg70
F0.0008503401360544217
sg262
F0.002551020408163265
sg278
F0.0008503401360544217
sS'remember'
p340
F0.02976190476190476
sg245
F0.0008503401360544217
sg280
F0.0008503401360544217
sg180
F0.002551020408163265
sg186
F0.0008503401360544217
sg42
F0.00510204081632653
sg215
F0.004251700680272109
sg275
F0.0008503401360544217
sg162
F0.0017006802721088435
sg163
F0.0008503401360544217
sg258
F0.0008503401360544217
sg276
F0.0017006802721088435
sg249
F0.002551020408163265
sg40
F0.0008503401360544217
sg146
F0.8732993197278912
ssI16
(dp341
g330
F0.14868804664723032
sS'supported'
p342
F0.001943634596695821
sg262
F0.008746355685131196
sS'held'
p343
F0.0058309037900874635
sg333
F0.0009718172983479105
sg329
F0.0029154518950437317
sS'forms'
p344
F0.0009718172983479105
sg323
F0.0009718172983479105
sg221
F0.014577259475218658
sS'suffered'
p345
F0.015549076773566569
sg144
F0.0009718172983479105
sg27
F0.0029154518950437317
sg28
F0.006802721088435374
sg92
F0.0029154518950437317
sg184
F0.001943634596695821
sg93
F0.001943634596695821
sS'compiled'
p346
F0.001943634596695821
sg194
F0.022351797862001945
sg279
F0.019436345966958212
sg168
F0.007774538386783284
sS'served'
p347
F0.013605442176870748
sg230
F0.0009718172983479105
sg104
F0.0009718172983479105
sg251
F0.006802721088435374
sS'acquired'
p348
F0.05150631681243926
sS'added'
p349
F0.01749271137026239
sg15
F0.023323615160349854
sg16
F0.010689990281827016
sS'opened'
p350
F0.010689990281827016
sg312
F0.0009718172983479105
sg22
F0.0009718172983479105
sS'written'
p351
F0.009718172983479106
sg24
F0.019436345966958212
sg338
F0.0009718172983479105
sS'led'
p352
F0.003887269193391642
sS'issued'
p353
F0.004859086491739553
sg44
F0.047619047619047616
sg121
F0.0009718172983479105
sg242
F0.003887269193391642
sg286
F0.03595724003887269
sg185
F0.0009718172983479105
sg165
F0.001943634596695821
sg186
F0.0009718172983479105
sS'published'
p354
F0.0029154518950437317
sg45
F0.0058309037900874635
sg249
F0.0029154518950437317
sg281
F0.014577259475218658
sg9
F0.001943634596695821
sg10
F0.014577259475218658
sg34
F0.003887269193391642
sg20
F0.006802721088435374
sg21
F0.003887269193391642
sS'entered'
p355
F0.04081632653061224
sS'gained'
p356
F0.007774538386783284
sg136
F0.0009718172983479105
sg232
F0.025267249757045675
sg235
F0.0058309037900874635
sg30
F0.0184645286686103
sg236
F0.003887269193391642
sg272
F0.0029154518950437317
sg37
F0.0029154518950437317
sg138
F0.0009718172983479105
sg316
F0.0009718172983479105
sg39
F0.03595724003887269
sS'signed'
p357
F0.0009718172983479105
sg274
F0.0029154518950437317
sS'replaced'
p358
F0.008746355685131196
sg189
F0.0009718172983479105
sg47
F0.0009718172983479105
sg289
F0.0029154518950437317
sg12
F0.003887269193391642
sg5
F0.0058309037900874635
sS'turned'
p359
F0.009718172983479106
sg223
F0.05539358600583091
sg334
F0.0009718172983479105
sg7
F0.061224489795918366
sg320
F0.0009718172983479105
sg151
F0.0009718172983479105
sg152
F0.008746355685131196
sg153
F0.0009718172983479105
sg234
F0.001943634596695821
sg62
F0.0009718172983479105
sg287
F0.004859086491739553
sg267
F0.025267249757045675
sg32
F0.0029154518950437317
sg33
F0.007774538386783284
sg238
F0.001943634596695821
sg239
F0.003887269193391642
sg328
F0.0029154518950437317
sg340
F0.0009718172983479105
sg257
F0.0009718172983479105
sS'sets'
p360
F0.0009718172983479105
sg191
F0.03498542274052478
ssI17
(dp361
g12
F0.0030864197530864196
sg19
F0.006172839506172839
sS'welcomed'
p362
F0.06790123456790123
sg330
F0.006172839506172839
sg262
F0.006172839506172839
sS'unveiled'
p363
F0.043209876543209874
sg7
F0.009259259259259259
sg10
F0.033950617283950615
sg32
F0.021604938271604937
sg34
F0.009259259259259259
sS'condemned'
p364
F0.006172839506172839
sg322
F0.0030864197530864196
sg20
F0.05864197530864197
sg21
F0.0030864197530864196
sg22
F0.0030864197530864196
sg351
F0.09567901234567901
sg194
F0.05555555555555555
sg221
F0.0030864197530864196
sg345
F0.021604938271604937
sS'announced'
p365
F0.08950617283950617
sg349
F0.006172839506172839
sg352
F0.0030864197530864196
sg286
F0.006172839506172839
sg269
F0.0030864197530864196
sg235
F0.0030864197530864196
sg272
F0.037037037037037035
sg353
F0.07098765432098765
sg239
F0.012345679012345678
sg281
F0.006172839506172839
sg39
F0.0030864197530864196
sg165
F0.0030864197530864196
sg346
F0.024691358024691357
sg357
F0.09876543209876543
sg354
F0.12037037037037036
sg347
F0.006172839506172839
sg45
F0.015432098765432098
sg18
F0.009259259259259259
sg289
F0.024691358024691357
ssI18
(dp366
g56
F0.005681818181818182
sg12
F0.017045454545454544
sg19
F0.39204545454545453
sg261
F0.005681818181818182
sg330
F0.005681818181818182
sg359
F0.017045454545454544
sS'proven'
p367
F0.08522727272727272
sg194
F0.005681818181818182
sg334
F0.005681818181818182
sg86
F0.005681818181818182
sg263
F0.011363636363636364
sg41
F0.05113636363636364
sg17
F0.005681818181818182
sS'Zeus'
p368
F0.005681818181818182
sg266
F0.011363636363636364
sg312
F0.011363636363636364
sg228
F0.09090909090909091
sg155
F0.005681818181818182
sg202
F0.011363636363636364
sg345
F0.005681818181818182
sg108
F0.005681818181818182
sg30
F0.005681818181818182
sg36
F0.005681818181818182
sg37
F0.011363636363636364
sg240
F0.005681818181818182
sg241
F0.011363636363636364
sg279
F0.005681818181818182
sg185
F0.005681818181818182
sg165
F0.011363636363636364
sg274
F0.125
sg42
F0.005681818181818182
sg162
F0.005681818181818182
sg278
F0.011363636363636364
sg47
F0.028409090909090908
ssI19
(dp369
g123
F0.006024096385542169
sg166
F0.012048192771084338
sg98
F0.012048192771084338
sg324
F0.9698795180722891
ssI20
(dp370
g102
F0.015873015873015872
sg103
F0.06349206349206349
sg87
F0.005291005291005291
sg147
F0.031746031746031744
sg119
F0.005291005291005291
sg148
F0.005291005291005291
sg169
F0.010582010582010581
sg83
F0.005291005291005291
sg84
F0.005291005291005291
sg131
F0.05291005291005291
sg122
F0.005291005291005291
sg11
F0.005291005291005291
sg125
F0.005291005291005291
sg13
F0.005291005291005291
sg126
F0.047619047619047616
sg255
F0.005291005291005291
sg254
F0.005291005291005291
sg321
F0.005291005291005291
sg98
F0.005291005291005291
sg106
F0.021164021164021163
sg89
F0.010582010582010581
sg266
F0.010582010582010581
sg175
F0.010582010582010581
sg155
F0.005291005291005291
sg90
F0.005291005291005291
sg132
F0.010582010582010581
sg95
F0.005291005291005291
sg248
F0.005291005291005291
sg177
F0.005291005291005291
sg93
F0.010582010582010581
sg156
F0.015873015873015872
sg110
F0.005291005291005291
sg113
F0.005291005291005291
sg179
F0.005291005291005291
sg115
F0.005291005291005291
sg141
F0.015873015873015872
sg186
F0.015873015873015872
sg171
F0.005291005291005291
sg153
F0.010582010582010581
sg246
F0.005291005291005291
sg172
F0.005291005291005291
sg116
F0.005291005291005291
sg275
F0.005291005291005291
sg162
F0.47619047619047616
sg100
F0.010582010582010581
sg230
F0.005291005291005291
sg18
F0.005291005291005291
sg191
F0.005291005291005291
ssI21
(dp371
g311
F0.005813953488372093
sg243
F0.38953488372093026
sg224
F0.029069767441860465
sg185
F0.01744186046511628
sg336
F0.023255813953488372
sg269
F0.005813953488372093
sS'supporting'
p372
F0.005813953488372093
sg236
F0.005813953488372093
sS'purchasing'
p373
F0.06395348837209303
sg312
F0.005813953488372093
sg17
F0.005813953488372093
sg258
F0.38953488372093026
sg249
F0.005813953488372093
sg280
F0.011627906976744186
sg315
F0.023255813953488372
sg146
F0.011627906976744186
ssI22
(dp374
g14
F0.3611111111111111
sS'mustered'
p375
F0.26851851851851855
sg108
F0.009259259259259259
sg185
F0.009259259259259259
sg316
F0.2777777777777778
sg274
F0.018518518518518517
sg24
F0.009259259259259259
sg334
F0.009259259259259259
sg44
F0.018518518518518517
sg45
F0.009259259259259259
sg259
F0.009259259259259259
ssI23
(dp376
g318
F0.1171875
sg79
F0.015625
sg147
F0.0234375
sg82
F0.0078125
sg142
F0.1484375
sg333
F0.015625
sg125
F0.0078125
sg320
F0.015625
sg153
F0.015625
sg98
F0.0078125
sg255
F0.0078125
sg23
F0.0078125
sS'potential'
p377
F0.0078125
sg345
F0.0078125
sg133
F0.0078125
sg356
F0.0234375
sg29
F0.0078125
sg177
F0.0078125
sg178
F0.34375
sg135
F0.015625
sg94
F0.0078125
sg180
F0.015625
sg121
F0.0078125
sg210
F0.0078125
sg138
F0.0078125
sg183
F0.0390625
sg185
F0.0078125
sg259
F0.0078125
sS'launch'
p378
F0.0078125
sg111
F0.0078125
sg187
F0.015625
sg162
F0.015625
sg163
F0.0078125
sg249
F0.0078125
sg40
F0.0078125
sg289
F0.0078125
sg191
F0.0078125
ssI24
(dp379
g82
F0.004132231404958678
sg332
F0.004132231404958678
sS'constitute'
p380
F0.008264462809917356
sg15
F0.004132231404958678
sg253
F0.004132231404958678
sg153
F0.004132231404958678
sg266
F0.004132231404958678
sg344
F0.1115702479338843
sg231
F0.004132231404958678
sg91
F0.004132231404958678
sg177
F0.004132231404958678
sg135
F0.34710743801652894
sg136
F0.004132231404958678
sg269
F0.01652892561983471
sg30
F0.028925619834710745
sg94
F0.004132231404958678
sg158
F0.004132231404958678
sg339
F0.0371900826446281
sg325
F0.35537190082644626
sg169
F0.004132231404958678
sg243
F0.004132231404958678
sg141
F0.008264462809917356
sS'later'
p381
F0.012396694214876033
sg179
F0.004132231404958678
sg143
F0.008264462809917356
sg289
F0.004132231404958678
ssI25
(dp382
S'think'
p383
F0.007575757575757576
sg349
F0.007575757575757576
sg244
F0.007575757575757576
sg166
F0.13636363636363635
sg330
F0.015151515151515152
sg33
F0.6893939393939394
sg265
F0.007575757575757576
sg94
F0.007575757575757576
sg381
F0.007575757575757576
sg344
F0.007575757575757576
sg237
F0.007575757575757576
sg334
F0.007575757575757576
sg121
F0.007575757575757576
sg355
F0.007575757575757576
sg278
F0.015151515151515152
sg231
F0.05303030303030303
sg340
F0.007575757575757576
ssI26
(dp384
g318
F0.0055248618784530384
sg92
F0.35911602209944754
sg178
F0.011049723756906077
sg378
F0.055248618784530384
sg156
F0.04419889502762431
sg381
F0.011049723756906077
sg110
F0.03314917127071823
sg99
F0.011049723756906077
sg100
F0.011049723756906077
sg328
F0.03867403314917127
sg228
F0.0055248618784530384
sg158
F0.011049723756906077
sg358
F0.0055248618784530384
sg334
F0.0055248618784530384
sg239
F0.011049723756906077
sg44
F0.011049723756906077
sg90
F0.0055248618784530384
sg176
F0.011049723756906077
sg91
F0.06077348066298342
sg145
F0.292817679558011
ssI27
(dp385
g147
F0.0038314176245210726
sg119
F0.0038314176245210726
sg82
F0.0038314176245210726
sg148
F0.0038314176245210726
sg84
F0.0038314176245210726
sg85
F0.011494252873563218
sg125
F0.019157088122605363
sg13
F0.30268199233716475
sg151
F0.011494252873563218
sg254
F0.0038314176245210726
sg128
F0.007662835249042145
sg118
F0.011494252873563218
sg288
F0.0038314176245210726
sg106
F0.007662835249042145
sS'peace'
p386
F0.0038314176245210726
sg89
F0.0038314176245210726
sg175
F0.007662835249042145
sg130
F0.0038314176245210726
sg323
F0.0038314176245210726
sg155
F0.41379310344827586
sS'forge'
p387
F0.05747126436781609
sg108
F0.011494252873563218
sg135
F0.019157088122605363
sg156
F0.0038314176245210726
sg94
F0.007662835249042145
sg241
F0.007662835249042145
sg152
F0.0038314176245210726
sg244
F0.0038314176245210726
sS'developing'
p388
F0.0038314176245210726
sg18
F0.04597701149425287
ssI28
(dp389
g87
F0.12041884816753927
sg26
F0.015706806282722512
sS'vary'
p390
F0.05759162303664921
sg11
F0.005235602094240838
sg84
F0.010471204188481676
sg124
F0.005235602094240838
sg123
F0.005235602094240838
sg85
F0.010471204188481676
sg126
F0.010471204188481676
sg254
F0.015706806282722512
sg128
F0.005235602094240838
sg153
F0.005235602094240838
sg106
F0.005235602094240838
sg118
F0.07329842931937172
sg255
F0.16230366492146597
sS'field'
p391
F0.04712041884816754
sg23
F0.03664921465968586
sg130
F0.005235602094240838
sg372
F0.03664921465968586
sg134
F0.005235602094240838
sg108
F0.005235602094240838
sg135
F0.005235602094240838
sg136
F0.005235602094240838
sg156
F0.005235602094240838
sg110
F0.005235602094240838
sg157
F0.015706806282722512
sg121
F0.005235602094240838
sg114
F0.10471204188481675
sg183
F0.005235602094240838
sg140
F0.005235602094240838
sg378
F0.005235602094240838
sg101
F0.010471204188481676
sg171
F0.005235602094240838
sg246
F0.015706806282722512
sg326
F0.04712041884816754
sg275
F0.08900523560209424
sg162
F0.015706806282722512
sg141
F0.005235602094240838
sg146
F0.005235602094240838
ssI29
(dp392
g38
F0.14720812182741116
sg311
F0.030456852791878174
sg204
F0.06598984771573604
sg224
F0.116751269035533
sg276
F0.1116751269035533
sg388
F0.04568527918781726
sg336
F0.06091370558375635
sg269
F0.005076142131979695
sg372
F0.015228426395939087
sg91
F0.005076142131979695
sg156
F0.005076142131979695
sg94
F0.01015228426395939
sS'establishing'
p393
F0.20304568527918782
sg136
F0.025380710659898477
sg315
F0.005076142131979695
sg258
F0.030456852791878174
sg146
F0.015228426395939087
sg280
F0.005076142131979695
sS'booking'
p394
F0.09137055837563451
sg298
F0.005076142131979695
ssI30
(dp395
S'welcome'
p396
F0.005847953216374269
sg151
F0.005847953216374269
sg378
F0.24561403508771928
sg348
F0.005847953216374269
sg136
F0.2982456140350877
sg94
F0.005847953216374269
sg153
F0.029239766081871343
sg145
F0.005847953216374269
sg11
F0.005847953216374269
sg85
F0.005847953216374269
sg190
F0.38596491228070173
ssI31
(dp397
g212
F0.3609467455621302
sg213
F0.005917159763313609
sg217
F0.005917159763313609
sg309
F0.005917159763313609
sg50
F0.005917159763313609
sg294
F0.0650887573964497
sg74
F0.005917159763313609
sg296
F0.005917159763313609
sg75
F0.0650887573964497
sg71
F0.011834319526627219
sg224
F0.005917159763313609
sg205
F0.023668639053254437
sg60
F0.011834319526627219
sg61
F0.10059171597633136
sg36
F0.01775147928994083
sg210
F0.005917159763313609
sg77
F0.2781065088757396
sg146
F0.01775147928994083
ssI32
(dp398
g342
F0.19318181818181818
sg380
F0.005681818181818182
sg343
F0.13068181818181818
sg263
F0.005681818181818182
sg15
F0.005681818181818182
sg127
F0.005681818181818182
sg105
F0.011363636363636364
sg18
F0.005681818181818182
sg118
F0.005681818181818182
sg20
F0.011363636363636364
sg27
F0.011363636363636364
sg352
F0.13068181818181818
sg32
F0.011363636363636364
sg232
F0.011363636363636364
sg30
F0.011363636363636364
sg272
F0.005681818181818182
sg239
F0.017045454545454544
sg339
F0.06818181818181818
sg159
F0.011363636363636364
sg121
F0.011363636363636364
sg247
F0.005681818181818182
sg39
F0.005681818181818182
sg388
F0.005681818181818182
sg168
F0.08522727272727272
sS'thought'
p399
F0.05113636363636364
sg358
F0.005681818181818182
sg189
F0.0625
sg249
F0.005681818181818182
sg47
F0.017045454545454544
sg191
F0.08522727272727272
ssI33
(dp400
g102
F0.00424929178470255
sg174
F0.00141643059490085
sg104
F0.00424929178470255
sg80
F0.00141643059490085
sg147
F0.0056657223796034
sg135
F0.00141643059490085
sg148
F0.0028328611898017
sg169
F0.00424929178470255
sg83
F0.014164305949008499
sg84
F0.007082152974504249
sg99
F0.00141643059490085
sg123
F0.007082152974504249
sg118
F0.007082152974504249
sg86
F0.0028328611898017
sg252
F0.0028328611898017
sg13
F0.00141643059490085
sg181
F0.015580736543909348
sg138
F0.00424929178470255
sg151
F0.0339943342776204
sg254
F0.00141643059490085
sg105
F0.00141643059490085
sg128
F0.00424929178470255
sg336
F0.00141643059490085
sg125
F0.007082152974504249
sg106
F0.0028328611898017
sg26
F0.0028328611898017
sg107
F0.0028328611898017
sg325
F0.00141643059490085
sg172
F0.0084985835694051
sg23
F0.0028328611898017
sg323
F0.00141643059490085
sg155
F0.019830028328611898
sg90
F0.10339943342776203
sg133
F0.0028328611898017
sS'nurture'
p401
F0.00141643059490085
sS'accord'
p402
F0.00141643059490085
sg134
F0.00424929178470255
sg108
F0.0113314447592068
sg178
F0.00141643059490085
sg31
F0.0028328611898017
sg136
F0.04107648725212465
sg110
F0.014164305949008499
sg94
F0.00141643059490085
sg157
F0.0028328611898017
sg180
F0.00141643059490085
sg158
F0.08498583569405099
sg153
F0.3413597733711048
sg159
F0.00141643059490085
sg145
F0.00141643059490085
sg239
F0.00141643059490085
sg182
F0.00141643059490085
sg88
F0.0056657223796034
sg113
F0.007082152974504249
sg139
F0.007082152974504249
sg97
F0.00424929178470255
sg183
F0.00141643059490085
sg222
F0.0056657223796034
sg98
F0.009915014164305949
sg244
F0.00141643059490085
sg378
F0.0028328611898017
sg115
F0.0169971671388102
sg245
F0.0028328611898017
sg141
F0.007082152974504249
sg160
F0.00424929178470255
sg161
F0.0028328611898017
sg186
F0.00141643059490085
sg321
F0.0028328611898017
sg116
F0.007082152974504249
sg162
F0.0028328611898017
sg163
F0.00141643059490085
sg333
F0.00424929178470255
sg117
F0.00141643059490085
sg230
F0.0028328611898017
sg18
F0.09206798866855524
sg146
F0.00141643059490085
ssI34
(dp403
g29
F0.005681818181818182
sg134
F0.005681818181818182
sg104
F0.005681818181818182
sg31
F0.005681818181818182
sg176
F0.9034090909090909
sg18
F0.005681818181818182
sg156
F0.005681818181818182
sg344
F0.005681818181818182
sg180
F0.005681818181818182
sg158
F0.005681818181818182
sg91
F0.005681818181818182
sg132
F0.017045454545454544
sg96
F0.017045454545454544
sg146
F0.005681818181818182
ssI35
(dp404
g28
F0.0660377358490566
sg320
F0.009433962264150943
sg349
F0.009433962264150943
sg3
F0.009433962264150943
sg233
F0.5471698113207547
sg346
F0.009433962264150943
sS'atop'
p405
F0.009433962264150943
sg46
F0.009433962264150943
sg186
F0.009433962264150943
sS'toll'
p406
F0.27358490566037735
sS'position'
p407
F0.009433962264150943
sg90
F0.009433962264150943
sg288
F0.009433962264150943
sg47
F0.009433962264150943
sg69
F0.009433962264150943
ssI36
(dp408
g102
F0.009389671361502348
sg87
F0.004694835680751174
sg166
F0.004694835680751174
sg81
F0.004694835680751174
sg390
F0.004694835680751174
sg148
F0.014084507042253521
sg281
F0.009389671361502348
sg11
F0.13615023474178403
sg86
F0.004694835680751174
sg98
F0.004694835680751174
sg254
F0.2300469483568075
sg128
F0.009389671361502348
sg321
F0.004694835680751174
sg154
F0.004694835680751174
sg18
F0.004694835680751174
sg118
F0.009389671361502348
sg266
F0.018779342723004695
sg175
F0.018779342723004695
sg348
F0.004694835680751174
sg107
F0.009389671361502348
sg325
F0.023474178403755867
sg90
F0.004694835680751174
sg91
F0.004694835680751174
sg135
F0.004694835680751174
sg121
F0.004694835680751174
sg113
F0.004694835680751174
sg222
F0.018779342723004695
sg244
F0.018779342723004695
sg261
F0.004694835680751174
sg115
F0.014084507042253521
sg141
F0.3192488262910798
sg381
F0.004694835680751174
sg383
F0.014084507042253521
sg187
F0.009389671361502348
sg153
F0.023474178403755867
sg143
F0.004694835680751174
sg47
F0.009389671361502348
ssI37
(dp409
g388
F0.027777777777777776
sg261
F0.006944444444444444
sg269
F0.006944444444444444
sg160
F0.006944444444444444
sg313
F0.006944444444444444
sS'highly'
p410
F0.6805555555555556
sg268
F0.10416666666666667
sg323
F0.006944444444444444
sg333
F0.125
sg233
F0.006944444444444444
sg259
F0.006944444444444444
sg40
F0.013888888888888888
ssI38
(dp411
g103
F0.0036900369003690036
sg166
F0.7527675276752768
sg81
F0.02214022140221402
sg222
F0.0036900369003690036
sg83
F0.0036900369003690036
sg134
F0.007380073800738007
sg399
F0.007380073800738007
sg86
F0.014760147601476014
sg252
F0.0036900369003690036
sg126
F0.0036900369003690036
sg32
F0.0036900369003690036
sg225
F0.0036900369003690036
sg151
F0.007380073800738007
sg153
F0.0036900369003690036
sg18
F0.014760147601476014
sg266
F0.0036900369003690036
sg130
F0.007380073800738007
sg349
F0.0036900369003690036
sg31
F0.0036900369003690036
sg233
F0.0036900369003690036
sg324
F0.0036900369003690036
sg157
F0.0036900369003690036
sg37
F0.0036900369003690036
sg340
F0.0036900369003690036
sg335
F0.0036900369003690036
sg244
F0.007380073800738007
sg115
F0.0036900369003690036
sg46
F0.007380073800738007
sg186
F0.007380073800738007
sg75
F0.0036900369003690036
sg187
F0.0036900369003690036
sg246
F0.0036900369003690036
sg249
F0.0036900369003690036
sg383
F0.06273062730627306
ssI39
(dp412
g318
F0.0049504950495049506
sg182
F0.0049504950495049506
sg80
F0.0049504950495049506
sg147
F0.01485148514851485
sg353
F0.0049504950495049506
sg380
F0.009900990099009901
sg343
F0.0049504950495049506
sg149
F0.0049504950495049506
sg123
F0.009900990099009901
sg85
F0.0049504950495049506
sg86
F0.0049504950495049506
sg125
F0.0297029702970297
sg13
F0.01485148514851485
sg135
F0.019801980198019802
sg174
F0.0049504950495049506
sg18
F0.04455445544554455
sg129
F0.0049504950495049506
sg25
F0.009900990099009901
sg90
F0.009900990099009901
sg132
F0.009900990099009901
sg177
F0.009900990099009901
sg108
F0.0049504950495049506
sg178
F0.009900990099009901
sg31
F0.0049504950495049506
sg396
F0.0049504950495049506
sg94
F0.0049504950495049506
sg88
F0.0049504950495049506
sg113
F0.009900990099009901
sg139
F0.0049504950495049506
sg183
F0.009900990099009901
sg222
F0.0049504950495049506
sg83
F0.0049504950495049506
sg141
F0.009900990099009901
sg160
F0.6485148514851485
sg171
F0.01485148514851485
sg188
F0.009900990099009901
sg154
F0.01485148514851485
ssI40
(dp413
g184
F0.06862745098039216
sg151
F0.00980392156862745
sg15
F0.00980392156862745
sg261
F0.00980392156862745
sg245
F0.00980392156862745
sg271
F0.00980392156862745
sS'widely'
p414
F0.27450980392156865
sg401
F0.3235294117647059
sg264
F0.28431372549019607
ssI41
(dp415
g49
F0.008264462809917356
sg305
F0.008264462809917356
sg3
F0.01652892561983471
sg199
F0.05785123966942149
sg54
F0.008264462809917356
sg72
F0.008264462809917356
sg301
F0.06611570247933884
sg207
F0.008264462809917356
sS'Towards'
p416
F0.19834710743801653
sg58
F0.01652892561983471
sg71
F0.008264462809917356
sg195
F0.008264462809917356
sg143
F0.008264462809917356
sg217
F0.01652892561983471
sg201
F0.008264462809917356
sg60
F0.008264462809917356
sg284
F0.008264462809917356
sS'Become'
p417
F0.4297520661157025
sS'Toward'
p418
F0.09090909090909091
sg68
F0.008264462809917356
sg218
F0.008264462809917356
ssI42
(dp419
g79
F0.2247191011235955
sg29
F0.02247191011235955
sg177
F0.011235955056179775
sg140
F0.0449438202247191
sg135
F0.06741573033707865
sg31
F0.033707865168539325
sg137
F0.3707865168539326
sg125
F0.011235955056179775
sg160
F0.011235955056179775
sg156
F0.011235955056179775
sg51
F0.011235955056179775
sg186
F0.011235955056179775
sg180
F0.011235955056179775
sg116
F0.011235955056179775
sg162
F0.011235955056179775
sg111
F0.011235955056179775
sg145
F0.011235955056179775
sg117
F0.07865168539325842
sg252
F0.011235955056179775
sg139
F0.011235955056179775
sg181
F0.011235955056179775
ssI43
(dp420
g102
F0.026845637583892617
sg182
F0.053691275167785234
sg12
F0.006711409395973154
sg87
F0.013422818791946308
sg166
F0.03355704697986577
sg176
F0.006711409395973154
sg81
F0.006711409395973154
sg120
F0.053691275167785234
sg83
F0.08053691275167785
sg149
F0.013422818791946308
sg123
F0.006711409395973154
sg124
F0.006711409395973154
sg86
F0.013422818791946308
sg13
F0.006711409395973154
sg80
F0.006711409395973154
sg254
F0.013422818791946308
sg105
F0.026845637583892617
sg153
F0.006711409395973154
sg154
F0.006711409395973154
sg56
F0.006711409395973154
sg167
F0.020134228187919462
sg228
F0.013422818791946308
sg293
F0.006711409395973154
sg91
F0.013422818791946308
sg27
F0.006711409395973154
sg29
F0.09395973154362416
sg177
F0.006711409395973154
sg108
F0.006711409395973154
sg93
F0.006711409395973154
sg159
F0.013422818791946308
sg112
F0.020134228187919462
sg88
F0.020134228187919462
sg114
F0.006711409395973154
sg212
F0.006711409395973154
sg179
F0.006711409395973154
sg72
F0.006711409395973154
sg11
F0.006711409395973154
sg274
F0.020134228187919462
sg246
F0.013422818791946308
sg143
F0.2080536912751678
sg100
F0.0738255033557047
sg190
F0.006711409395973154
sg383
F0.013422818791946308
sg146
F0.006711409395973154
ssI44
(dp421
g320
F0.011111111111111112
sg12
F0.06666666666666667
sg80
F0.022222222222222223
sg127
F0.022222222222222223
sg257
F0.044444444444444446
sg46
F0.011111111111111112
sg165
F0.011111111111111112
sg47
F0.011111111111111112
sg399
F0.022222222222222223
sg343
F0.011111111111111112
sg319
F0.4444444444444444
sg275
F0.011111111111111112
sS'continued'
p422
F0.26666666666666666
sg241
F0.022222222222222223
sg17
F0.022222222222222223
ssI45
(dp423
g222
F0.010752688172043012
sg79
F0.043010752688172046
sg147
F0.021505376344086023
sg18
F0.3010752688172043
sg128
F0.010752688172043012
sg380
F0.3118279569892473
sg155
F0.010752688172043012
sg90
F0.010752688172043012
sg139
F0.26881720430107525
sg230
F0.010752688172043012
ssI46
(dp424
g350
F0.014492753623188406
sg177
F0.014492753623188406
sg224
F0.014492753623188406
sg44
F0.043478260869565216
sg185
F0.014492753623188406
sg381
F0.028985507246376812
sg7
F0.014492753623188406
sg323
F0.014492753623188406
sg9
F0.014492753623188406
sg267
F0.014492753623188406
sg338
F0.3333333333333333
sg163
F0.014492753623188406
sg152
F0.36231884057971014
sg88
F0.014492753623188406
sg249
F0.014492753623188406
sg13
F0.043478260869565216
sg155
F0.028985507246376812
ssI47
(dp425
g212
F0.008695652173913044
sg300
F0.02608695652173913
sg2
F0.008695652173913044
sg292
F0.2
sg4
F0.4
sg73
F0.017391304347826087
sg63
F0.06956521739130435
sg56
F0.008695652173913044
sg74
F0.02608695652173913
sg51
F0.02608695652173913
sg65
F0.008695652173913044
sg200
F0.008695652173913044
sS'She'
p426
F0.12173913043478261
sg217
F0.06956521739130435
ssI48
(dp427
g282
F0.17105263157894737
sg173
F0.02631578947368421
sg269
F0.07894736842105263
sg33
F0.013157894736842105
sg246
F0.02631578947368421
sg237
F0.013157894736842105
sg188
F0.013157894736842105
sg229
F0.013157894736842105
sS'fall'
p428
F0.15789473684210525
sg407
F0.25
sg238
F0.23684210526315788
ssI49
(dp429
g103
F0.006802721088435374
sg104
F0.23809523809523808
sg12
F0.006802721088435374
sg147
F0.006802721088435374
sg176
F0.006802721088435374
sg83
F0.05442176870748299
sg252
F0.05442176870748299
sg13
F0.034013605442176874
sg32
F0.047619047619047616
sg34
F0.006802721088435374
sg198
F0.013605442176870748
sg151
F0.006802721088435374
sg152
F0.006802721088435374
sg153
F0.013605442176870748
sg18
F0.02040816326530612
sg22
F0.006802721088435374
sg136
F0.013605442176870748
sg235
F0.006802721088435374
sg396
F0.11564625850340136
sg158
F0.006802721088435374
sg44
F0.006802721088435374
sg239
F0.09523809523809523
sg39
F0.013605442176870748
sg79
F0.006802721088435374
sg186
F0.013605442176870748
sg399
F0.006802721088435374
sg360
F0.17006802721088435
sg145
F0.013605442176870748
ssI50
(dp430
g173
F0.01694915254237288
sg147
F0.01694915254237288
sg381
F0.01694915254237288
sg35
F0.01694915254237288
sg210
F0.03389830508474576
sg37
F0.01694915254237288
sS'Channel'
p431
F0.23728813559322035
sS'speak'
p432
F0.6440677966101694
ssI51
(dp433
S'letting'
p434
F0.6545454545454545
sg224
F0.01818181818181818
sg185
F0.01818181818181818
sg336
F0.01818181818181818
sg266
F0.01818181818181818
sg35
F0.01818181818181818
sg394
F0.01818181818181818
sS'hanging'
p435
F0.21818181818181817
sg315
F0.01818181818181818
ssI52
(dp436
g12
F0.005263157894736842
sg5
F0.005263157894736842
sg221
F0.021052631578947368
sg342
F0.010526315789473684
sg281
F0.005263157894736842
sg343
F0.005263157894736842
sg9
F0.031578947368421054
sg334
F0.24210526315789474
sg32
F0.06315789473684211
sg16
F0.02631578947368421
sg364
F0.14736842105263157
sg20
F0.015789473684210527
sg22
F0.015789473684210527
sg194
F0.005263157894736842
sg345
F0.005263157894736842
sg267
F0.005263157894736842
sg235
F0.031578947368421054
sg34
F0.021052631578947368
sg239
F0.010526315789473684
sg121
F0.005263157894736842
sg37
F0.005263157894736842
sg242
F0.04736842105263158
sg286
F0.010526315789473684
sg39
F0.22631578947368422
sg280
F0.005263157894736842
sg274
F0.010526315789473684
sg358
F0.005263157894736842
sg289
F0.010526315789473684
ssI53
(dp437
g103
F0.012658227848101266
sg320
F0.16455696202531644
sg278
F0.1518987341772152
sg12
F0.012658227848101266
sg93
F0.012658227848101266
sg226
F0.3291139240506329
sg232
F0.012658227848101266
sg158
F0.0759493670886076
sS'downward'
p438
F0.189873417721519
sg146
F0.012658227848101266
sg37
F0.012658227848101266
sg248
F0.012658227848101266
ssI54
(dp439
g103
F0.0136986301369863
sg113
F0.0136986301369863
sg80
F0.0273972602739726
sg324
F0.0273972602739726
sg136
F0.0410958904109589
sg81
F0.0136986301369863
sg158
F0.0273972602739726
sg95
F0.0273972602739726
sg274
F0.0136986301369863
sg391
F0.0273972602739726
sg188
F0.0136986301369863
sg25
F0.0273972602739726
sg144
F0.0547945205479452
sS'document'
p440
F0.3150684931506849
sg125
F0.0136986301369863
sg263
F0.0136986301369863
sg114
F0.273972602739726
sg133
F0.0547945205479452
ssI55
(dp441
g213
F0.041666666666666664
sg305
F0.027777777777777776
sg74
F0.013888888888888888
sg75
F0.027777777777777776
sg200
F0.027777777777777776
sg302
F0.4444444444444444
sS'Silly'
p442
F0.20833333333333334
sS'searched'
p443
F0.16666666666666666
sg288
F0.013888888888888888
sg383
F0.027777777777777776
ssI56
(dp444
g340
F0.029411764705882353
sg147
F0.07352941176470588
sg381
F0.014705882352941176
sg337
F0.6323529411764706
sS'relocate'
p445
F0.23529411764705882
sg146
F0.014705882352941176
ssI57
(dp446
g5
F0.030303030303030304
sg224
F0.12121212121212122
sg127
F0.030303030303030304
sg39
F0.030303030303030304
sg321
F0.3939393939393939
sg18
F0.030303030303030304
sg119
F0.09090909090909091
sg131
F0.06060606060606061
sg258
F0.030303030303030304
sg280
F0.030303030303030304
sg139
F0.030303030303030304
sg27
F0.12121212121212122
ssI58
(dp447
g335
F0.3409090909090909
sg221
F0.022727272727272728
sg165
F0.022727272727272728
sg187
F0.022727272727272728
sg274
F0.022727272727272728
sS'seriously'
p448
F0.5227272727272727
sg259
F0.045454545454545456
ssI59
(dp449
S'Police'
p450
F0.2523364485981308
sg227
F0.009345794392523364
sg270
F0.009345794392523364
sS'Topic'
p451
F0.2523364485981308
sg215
F0.009345794392523364
sS'Keywords'
p452
F0.4392523364485981
sg67
F0.028037383177570093
ssI60
(dp453
g153
F0.046511627906976744
sg349
F0.023255813953488372
sg273
F0.9302325581395349
ssI61
(dp454
g130
F0.013157894736842105
sg18
F0.02631578947368421
sg170
F0.881578947368421
sg23
F0.013157894736842105
sg95
F0.013157894736842105
sg83
F0.013157894736842105
sg180
F0.013157894736842105
sg82
F0.013157894736842105
sg13
F0.013157894736842105
ssI62
(dp455
g330
F0.025
sS'relating'
p456
F0.425
sg352
F0.025
sS'applicable'
p457
F0.075
sS'closely'
p458
F0.45
ssI63
(dp459
g102
F0.01818181818181818
sg356
F0.01818181818181818
sS'Wellingborough'
p460
F0.18181818181818182
sg152
F0.01818181818181818
sg93
F0.03636363636363636
sg106
F0.01818181818181818
sg386
F0.21818181818181817
sg236
F0.01818181818181818
sg22
F0.05454545454545454
sg25
F0.03636363636363636
sg10
F0.01818181818181818
sS'Mitsubishi'
p461
F0.34545454545454546
sg146
F0.01818181818181818
ssI64
(dp462
g79
F0.013513513513513514
sg29
F0.013513513513513514
sS'Honorary'
p463
F0.581081081081081
sg246
F0.013513513513513514
sg84
F0.13513513513513514
sg101
F0.20270270270270271
sg146
F0.013513513513513514
sg18
F0.013513513513513514
sg133
F0.013513513513513514
ssI65
(dp464
g38
F0.01818181818181818
sg311
F0.03636363636363636
sg299
F0.9090909090909091
sg224
F0.01818181818181818
sg315
F0.01818181818181818
ssI66
(dp465
g70
F0.010526315789473684
sS'Already'
p466
F0.9157894736842105
sg72
F0.010526315789473684
sg56
F0.010526315789473684
sg71
F0.010526315789473684
sg61
F0.010526315789473684
sg209
F0.010526315789473684
sg62
F0.010526315789473684
sg66
F0.010526315789473684
ssI67
(dp467
g150
F0.010869565217391304
sS'densely'
p468
F0.010869565217391304
sS'BBC'
p469
F0.18478260869565216
sS'sparsely'
p470
F0.782608695652174
sg27
F0.010869565217391304
ssI68
(dp471
g377
F0.31666666666666665
sS'tax'
p472
F0.6333333333333333
sg276
F0.03333333333333333
sg146
F0.016666666666666666
ssI69
(dp473
g296
F0.011235955056179775
sg3
F0.011235955056179775
sS'Taste'
p474
F0.8314606741573034
sg292
F0.011235955056179775
sg6
F0.011235955056179775
sg57
F0.011235955056179775
sg58
F0.011235955056179775
sg146
F0.02247191011235955
sg69
F0.07865168539325842
ssI70
(dp475
S'Soviet'
p476
F0.9880952380952381
sg146
F0.011904761904761904
ssI71
(dp477
g70
F0.031746031746031744
sg213
F0.015873015873015872
sg4
F0.031746031746031744
sg291
F0.1746031746031746
sg58
F0.15873015873015872
sg57
F0.015873015873015872
sg297
F0.5396825396825397
sg66
F0.031746031746031744
ssI72
(dp478
g153
F0.0547945205479452
sg176
F0.0273972602739726
sg81
F0.0136986301369863
sg130
F0.0136986301369863
sg25
F0.0821917808219178
sg162
F0.0684931506849315
sg163
F0.0136986301369863
sg124
F0.6164383561643836
sg146
F0.0136986301369863
sg97
F0.0958904109589041
ssI73
(dp479
g344
F0.045454545454545456
sS'hole'
p480
F0.7727272727272727
sg30
F0.045454545454545456
sg135
F0.045454545454545456
sg146
F0.09090909090909091
ss.